target datalayout = "e-m:e-p270:32:32-p271:32:32-p272:64:64-i64:64-i128:128-f80:128-n8:16:32:64-S128"
target triple = "x86_64-pc-linux-gnu"

%struct.expert_field = type { i32, i32 }

@hf_pcep_endpoint_p2mp_leaf = internal global i32 0, align 4
@hf_pcep_end_point_obj_source_ipv4_address = internal global i32 0, align 4
@hf_pcep_end_point_obj_destination_ipv4_address = internal global i32 0, align 4
@hf_pcep_end_point_obj_source_ipv6_address = internal global i32 0, align 4
@hf_pcep_end_point_obj_destination_ipv6_address = internal global i32 0, align 4
@ei_pcep_subobject_bad_length = internal global %struct.expert_field zeroinitializer, align 4
@ei_pcep_unknown_type_object = internal global %struct.expert_field zeroinitializer, align 4
@.str.1146 = private unnamed_addr constant [51 x i8] c"Bad IPv4 END-POINTS object length %u, should be %u\00", align 1
@.str.1147 = private unnamed_addr constant [51 x i8] c"Bad IPv6 END-POINTS object length %u, should be %u\00", align 1
@.str.1148 = private unnamed_addr constant [25 x i8] c"UNKNOWN Type Object (%u)\00", align 1

; Function Attrs: null_pointer_is_valid sspstrong uwtable
define internal void @dissect_pcep_end_point_obj(ptr noundef %0, ptr noundef %1, ptr noundef %2, i32 noundef %3, i32 noundef %4, i32 noundef %5, i32 noundef %6) #0 {
  %8 = alloca ptr, align 8
  %9 = alloca ptr, align 8
  %10 = alloca ptr, align 8
  %11 = alloca i32, align 4
  %12 = alloca i32, align 4
  %13 = alloca i32, align 4
  %14 = alloca i32, align 4
  %15 = alloca i32, align 4
  %16 = alloca i32, align 4
  %17 = alloca i32, align 4
  store ptr %0, ptr %8, align 8
  store ptr %1, ptr %9, align 8
  store ptr %2, ptr %10, align 8
  store i32 %3, ptr %11, align 4
  store i32 %4, ptr %12, align 4
  store i32 %5, ptr %13, align 4
  store i32 %6, ptr %14, align 4
  call void @llvm.lifetime.start.p0(i64 4, ptr %15) #4
  call void @llvm.lifetime.start.p0(i64 4, ptr %16) #4
  store i32 0, ptr %16, align 4
  %18 = load i32, ptr %14, align 4
  switch i32 %18, label %133 [
    i32 1, label %19
    i32 2, label %42
    i32 3, label %65
    i32 4, label %99
  ]

19:                                               ; preds = %7
  %20 = load i32, ptr %12, align 4
  %21 = icmp ne i32 %20, 12
  br i1 %21, label %22, label %30

22:                                               ; preds = %19
  %23 = load ptr, ptr %8, align 8
  %24 = load ptr, ptr %9, align 8
  %25 = load ptr, ptr %10, align 8
  %26 = load i32, ptr %11, align 4
  %27 = load i32, ptr %12, align 4
  %28 = load i32, ptr %12, align 4
  %29 = call ptr (ptr, ptr, ptr, ptr, i32, i32, ptr, ...) @proto_tree_add_expert_format(ptr noundef %23, ptr noundef %24, ptr noundef @ei_pcep_subobject_bad_length, ptr noundef %25, i32 noundef %26, i32 noundef %27, ptr noundef @.str.1146, i32 noundef %28, i32 noundef 12)
  store i32 1, ptr %17, align 4
  br label %143

30:                                               ; preds = %19
  %31 = load ptr, ptr %8, align 8
  %32 = load i32, ptr @hf_pcep_end_point_obj_source_ipv4_address, align 4
  %33 = load ptr, ptr %10, align 8
  %34 = load i32, ptr %11, align 4
  %35 = call ptr @proto_tree_add_item(ptr noundef %31, i32 noundef %32, ptr noundef %33, i32 noundef %34, i32 noundef 4, i32 noundef 0)
  %36 = load ptr, ptr %8, align 8
  %37 = load i32, ptr @hf_pcep_end_point_obj_destination_ipv4_address, align 4
  %38 = load ptr, ptr %10, align 8
  %39 = load i32, ptr %11, align 4
  %40 = add i32 %39, 4
  %41 = call ptr @proto_tree_add_item(ptr noundef %36, i32 noundef %37, ptr noundef %38, i32 noundef %40, i32 noundef 4, i32 noundef 0)
  br label %142

42:                                               ; preds = %7
  %43 = load i32, ptr %12, align 4
  %44 = icmp ne i32 %43, 36
  br i1 %44, label %45, label %53

45:                                               ; preds = %42
  %46 = load ptr, ptr %8, align 8
  %47 = load ptr, ptr %9, align 8
  %48 = load ptr, ptr %10, align 8
  %49 = load i32, ptr %11, align 4
  %50 = load i32, ptr %12, align 4
  %51 = load i32, ptr %12, align 4
  %52 = call ptr (ptr, ptr, ptr, ptr, i32, i32, ptr, ...) @proto_tree_add_expert_format(ptr noundef %46, ptr noundef %47, ptr noundef @ei_pcep_subobject_bad_length, ptr noundef %48, i32 noundef %49, i32 noundef %50, ptr noundef @.str.1147, i32 noundef %51, i32 noundef 36)
  store i32 1, ptr %17, align 4
  br label %143

53:                                               ; preds = %42
  %54 = load ptr, ptr %8, align 8
  %55 = load i32, ptr @hf_pcep_end_point_obj_source_ipv6_address, align 4
  %56 = load ptr, ptr %10, align 8
  %57 = load i32, ptr %11, align 4
  %58 = call ptr @proto_tree_add_item(ptr noundef %54, i32 noundef %55, ptr noundef %56, i32 noundef %57, i32 noundef 16, i32 noundef 0)
  %59 = load ptr, ptr %8, align 8
  %60 = load i32, ptr @hf_pcep_end_point_obj_destination_ipv6_address, align 4
  %61 = load ptr, ptr %10, align 8
  %62 = load i32, ptr %11, align 4
  %63 = add i32 %62, 16
  %64 = call ptr @proto_tree_add_item(ptr noundef %59, i32 noundef %60, ptr noundef %61, i32 noundef %63, i32 noundef 16, i32 noundef 0)
  br label %142

65:                                               ; preds = %7
  %66 = load ptr, ptr %8, align 8
  %67 = load i32, ptr @hf_pcep_endpoint_p2mp_leaf, align 4
  %68 = load ptr, ptr %10, align 8
  %69 = load i32, ptr %11, align 4
  %70 = call ptr @proto_tree_add_item(ptr noundef %66, i32 noundef %67, ptr noundef %68, i32 noundef %69, i32 noundef 4, i32 noundef 0)
  %71 = load ptr, ptr %8, align 8
  %72 = load i32, ptr @hf_pcep_end_point_obj_source_ipv4_address, align 4
  %73 = load ptr, ptr %10, align 8
  %74 = load i32, ptr %11, align 4
  %75 = add i32 %74, 4
  %76 = call ptr @proto_tree_add_item(ptr noundef %71, i32 noundef %72, ptr noundef %73, i32 noundef %75, i32 noundef 4, i32 noundef 0)
  %77 = load i32, ptr %12, align 4
  %78 = sub i32 %77, 4
  %79 = sub i32 %78, 8
  %80 = sdiv i32 %79, 4
  store i32 %80, ptr %15, align 4
  store i32 0, ptr %16, align 4
  br label %81

81:                                               ; preds = %95, %65
  %82 = load i32, ptr %16, align 4
  %83 = load i32, ptr %15, align 4
  %84 = icmp slt i32 %82, %83
  br i1 %84, label %85, label %98

85:                                               ; preds = %81
  %86 = load ptr, ptr %8, align 8
  %87 = load i32, ptr @hf_pcep_end_point_obj_destination_ipv4_address, align 4
  %88 = load ptr, ptr %10, align 8
  %89 = load i32, ptr %11, align 4
  %90 = add i32 %89, 8
  %91 = load i32, ptr %16, align 4
  %92 = mul i32 4, %91
  %93 = add i32 %90, %92
  %94 = call ptr @proto_tree_add_item(ptr noundef %86, i32 noundef %87, ptr noundef %88, i32 noundef %93, i32 noundef 4, i32 noundef 0)
  br label %95

95:                                               ; preds = %85
  %96 = load i32, ptr %16, align 4
  %97 = add i32 %96, 1
  store i32 %97, ptr %16, align 4
  br label %81, !llvm.loop !8

98:                                               ; preds = %81
  br label %142

99:                                               ; preds = %7
  %100 = load ptr, ptr %8, align 8
  %101 = load i32, ptr @hf_pcep_endpoint_p2mp_leaf, align 4
  %102 = load ptr, ptr %10, align 8
  %103 = load i32, ptr %11, align 4
  %104 = call ptr @proto_tree_add_item(ptr noundef %100, i32 noundef %101, ptr noundef %102, i32 noundef %103, i32 noundef 4, i32 noundef 0)
  %105 = load ptr, ptr %8, align 8
  %106 = load i32, ptr @hf_pcep_end_point_obj_source_ipv6_address, align 4
  %107 = load ptr, ptr %10, align 8
  %108 = load i32, ptr %11, align 4
  %109 = add i32 %108, 4
  %110 = call ptr @proto_tree_add_item(ptr noundef %105, i32 noundef %106, ptr noundef %107, i32 noundef %109, i32 noundef 16, i32 noundef 0)
  %111 = load i32, ptr %12, align 4
  %112 = sub i32 %111, 4
  %113 = sub i32 %112, 20
  %114 = sdiv i32 %113, 16
  store i32 %114, ptr %15, align 4
  store i32 0, ptr %16, align 4
  br label %115

115:                                              ; preds = %129, %99
  %116 = load i32, ptr %16, align 4
  %117 = load i32, ptr %15, align 4
  %118 = icmp slt i32 %116, %117
  br i1 %118, label %119, label %132

119:                                              ; preds = %115
  %120 = load ptr, ptr %8, align 8
  %121 = load i32, ptr @hf_pcep_end_point_obj_destination_ipv6_address, align 4
  %122 = load ptr, ptr %10, align 8
  %123 = load i32, ptr %11, align 4
  %124 = add i32 %123, 20
  %125 = load i32, ptr %16, align 4
  %126 = mul i32 %125, 16
  %127 = add i32 %124, %126
  %128 = call ptr @proto_tree_add_item(ptr noundef %120, i32 noundef %121, ptr noundef %122, i32 noundef %127, i32 noundef 16, i32 noundef 0)
  br label %129

129:                                              ; preds = %119
  %130 = load i32, ptr %16, align 4
  %131 = add i32 %130, 1
  store i32 %131, ptr %16, align 4
  br label %115, !llvm.loop !9

132:                                              ; preds = %115
  br label %142

133:                                              ; preds = %7
  %134 = load ptr, ptr %8, align 8
  %135 = load ptr, ptr %9, align 8
  %136 = load ptr, ptr %10, align 8
  %137 = load i32, ptr %11, align 4
  %138 = load i32, ptr %12, align 4
  %139 = sub i32 %138, 4
  %140 = load i32, ptr %14, align 4
  %141 = call ptr (ptr, ptr, ptr, ptr, i32, i32, ptr, ...) @proto_tree_add_expert_format(ptr noundef %134, ptr noundef %135, ptr noundef @ei_pcep_unknown_type_object, ptr noundef %136, i32 noundef %137, i32 noundef %139, ptr noundef @.str.1148, i32 noundef %140)
  br label %142

142:                                              ; preds = %133, %132, %98, %53, %30
  store i32 0, ptr %17, align 4
  br label %143

143:                                              ; preds = %142, %45, %22
  call void @llvm.lifetime.end.p0(i64 4, ptr %16) #4
  call void @llvm.lifetime.end.p0(i64 4, ptr %15) #4
  %144 = load i32, ptr %17, align 4
  switch i32 %144, label %146 [
    i32 0, label %145
    i32 1, label %145
  ]

145:                                              ; preds = %143, %143
  ret void

146:                                              ; preds = %143
  unreachable
}