; Function Attrs: null_pointer_is_valid sspstrong uwtable
define internal void @dissect_pcep_end_point_obj(ptr noundef %0, ptr noundef %1, ptr noundef %2, i32 noundef %3, i32 noundef %4, i32 %5, i32 noundef %6) #0 {
  switch i32 %6, label %58 [
    i32 1, label %8
    i32 2, label %17
    i32 3, label %26
    i32 4, label %42
  ]

8:                                                ; preds = %7
  %.not62 = icmp eq i32 %4, 12
  br i1 %.not62, label %11, label %9

9:                                                ; preds = %8
  %10 = tail call ptr (ptr, ptr, ptr, ptr, i32, i32, ptr, ...) @proto_tree_add_expert_format(ptr noundef %0, ptr noundef %1, ptr noundef nonnull @ei_pcep_subobject_bad_length, ptr noundef %2, i32 noundef %3, i32 noundef %4, ptr noundef nonnull @.str.1146, i32 noundef %4, i32 noundef 12)
  br label %.loopexit

11:                                               ; preds = %8
  %12 = load i32, ptr @hf_pcep_end_point_obj_source_ipv4_address, align 4
  %13 = tail call ptr @proto_tree_add_item(ptr noundef %0, i32 noundef %12, ptr noundef %2, i32 noundef %3, i32 noundef 4, i32 noundef 0)
  %14 = load i32, ptr @hf_pcep_end_point_obj_destination_ipv4_address, align 4
  %15 = add i32 %3, 4
  %16 = tail call ptr @proto_tree_add_item(ptr noundef %0, i32 noundef %14, ptr noundef %2, i32 noundef %15, i32 noundef 4, i32 noundef 0)
  br label %.loopexit

17:                                               ; preds = %7
  %.not = icmp eq i32 %4, 36
  br i1 %.not, label %20, label %18

18:                                               ; preds = %17
  %19 = tail call ptr (ptr, ptr, ptr, ptr, i32, i32, ptr, ...) @proto_tree_add_expert_format(ptr noundef %0, ptr noundef %1, ptr noundef nonnull @ei_pcep_subobject_bad_length, ptr noundef %2, i32 noundef %3, i32 noundef %4, ptr noundef nonnull @.str.1147, i32 noundef %4, i32 noundef 36)
  br label %.loopexit

20:                                               ; preds = %17
  %21 = load i32, ptr @hf_pcep_end_point_obj_source_ipv6_address, align 4
  %22 = tail call ptr @proto_tree_add_item(ptr noundef %0, i32 noundef %21, ptr noundef %2, i32 noundef %3, i32 noundef 16, i32 noundef 0)
  %23 = load i32, ptr @hf_pcep_end_point_obj_destination_ipv6_address, align 4
  %24 = add i32 %3, 16
  %25 = tail call ptr @proto_tree_add_item(ptr noundef %0, i32 noundef %23, ptr noundef %2, i32 noundef %24, i32 noundef 16, i32 noundef 0)
  br label %.loopexit

26:                                               ; preds = %7
  %27 = load i32, ptr @hf_pcep_endpoint_p2mp_leaf, align 4
  %28 = tail call ptr @proto_tree_add_item(ptr noundef %0, i32 noundef %27, ptr noundef %2, i32 noundef %3, i32 noundef 4, i32 noundef 0)
  %29 = load i32, ptr @hf_pcep_end_point_obj_source_ipv4_address, align 4
  %30 = add i32 %3, 4
  %31 = tail call ptr @proto_tree_add_item(ptr noundef %0, i32 noundef %29, ptr noundef %2, i32 noundef %30, i32 noundef 4, i32 noundef 0)
  %32 = add i32 %4, -12
  %33 = sdiv i32 %32, 4
  %34 = icmp sgt i32 %32, 3
  br i1 %34, label %.lr.ph66, label %.loopexit

.lr.ph66:                                         ; preds = %26
  %35 = add i32 %3, 8
  br label %36

36:                                               ; preds = %.lr.ph66, %36
  %.065 = phi i32 [ 0, %.lr.ph66 ], [ %41, %36 ]
  %37 = load i32, ptr @hf_pcep_end_point_obj_destination_ipv4_address, align 4
  %38 = shl i32 %.065, 2
  %39 = add i32 %35, %38
  %40 = tail call ptr @proto_tree_add_item(ptr noundef %0, i32 noundef %37, ptr noundef %2, i32 noundef %39, i32 noundef 4, i32 noundef 0)
  %41 = add nuw nsw i32 %.065, 1
  %exitcond68.not = icmp eq i32 %41, %33
  br i1 %exitcond68.not, label %.loopexit, label %36, !llvm.loop !8

42:                                               ; preds = %7
  %43 = load i32, ptr @hf_pcep_endpoint_p2mp_leaf, align 4
  %44 = tail call ptr @proto_tree_add_item(ptr noundef %0, i32 noundef %43, ptr noundef %2, i32 noundef %3, i32 noundef 4, i32 noundef 0)
  %45 = load i32, ptr @hf_pcep_end_point_obj_source_ipv6_address, align 4
  %46 = add i32 %3, 4
  %47 = tail call ptr @proto_tree_add_item(ptr noundef %0, i32 noundef %45, ptr noundef %2, i32 noundef %46, i32 noundef 16, i32 noundef 0)
  %48 = add i32 %4, -24
  %49 = sdiv i32 %48, 16
  %50 = icmp sgt i32 %48, 15
  br i1 %50, label %.lr.ph, label %.loopexit

.lr.ph:                                           ; preds = %42
  %51 = add i32 %3, 20
  br label %52

52:                                               ; preds = %.lr.ph, %52
  %.164 = phi i32 [ 0, %.lr.ph ], [ %57, %52 ]
  %53 = load i32, ptr @hf_pcep_end_point_obj_destination_ipv6_address, align 4
  %54 = shl i32 %.164, 4
  %55 = add i32 %51, %54
  %56 = tail call ptr @proto_tree_add_item(ptr noundef %0, i32 noundef %53, ptr noundef %2, i32 noundef %55, i32 noundef 16, i32 noundef 0)
  %57 = add nuw nsw i32 %.164, 1
  %exitcond.not = icmp eq i32 %57, %49
  br i1 %exitcond.not, label %.loopexit, label %52, !llvm.loop !9

58:                                               ; preds = %7
  %59 = add i32 %4, -4
  %60 = tail call ptr (ptr, ptr, ptr, ptr, i32, i32, ptr, ...) @proto_tree_add_expert_format(ptr noundef %0, ptr noundef %1, ptr noundef nonnull @ei_pcep_unknown_type_object, ptr noundef %2, i32 noundef %3, i32 noundef %59, ptr noundef nonnull @.str.1148, i32 noundef %6)
  br label %.loopexit

.loopexit:                                        ; preds = %52, %36, %42, %26, %11, %20, %58, %18, %9
  ret void
}